(lp0
cnumpy.core.multiarray
scalar
p1
(cnumpy
dtype
p2
(S'f8'
p3
I0
I1
tp4
Rp5
(I3
S'<'
p6
NNNI-1
I-1
I0
tp7
bS',}\xe8\x82\xfa\x96\xb9?'
p8
tp9
Rp10
ag1
(g5
S'\x9a\x99\x99\x99\x99\x99\xb9?'
p11
tp12
Rp13
a.