(lp0
cnumpy.core.multiarray
scalar
p1
(cnumpy
dtype
p2
(S'f8'
p3
I0
I1
tp4
Rp5
(I3
S'<'
p6
NNNI-1
I-1
I0
tp7
bS'\xfd\xc1\xc0s\xa0+\xff?'
p8
tp9
Rp10
ag1
(g5
S'f\xda\xfe\x95\xf6\x97\xf7?'
p11
tp12
Rp13
a.