(lp0
cnumpy.core.multiarray
scalar
p1
(cnumpy
dtype
p2
(S'f8'
p3
I0
I1
tp4
Rp5
(I3
S'<'
p6
NNNI-1
I-1
I0
tp7
bS'\xa6\x9b\xc4 \xb0r\xd0?'
p8
tp9
Rp10
ag1
(g5
S'\xcc\x0b\xb0\x8fN]\xdd?'
p11
tp12
Rp13
a.