(lp0
cnumpy.core.multiarray
scalar
p1
(cnumpy
dtype
p2
(S'f8'
p3
I0
I1
tp4
Rp5
(I3
S'<'
p6
NNNI-1
I-1
I0
tp7
bS'p\xb1\xa2\x86\xb1\x90\xfd?'
p8
tp9
Rp10
ag1
(g5
S'\x90\xa0\xf8\x11\x0fD\xf6?'
p11
tp12
Rp13
a.