(lp0
cnumpy.core.multiarray
scalar
p1
(cnumpy
dtype
p2
(S'f8'
p3
I0
I1
tp4
Rp5
(I3
S'<'
p6
NNNI-1
I-1
I0
tp7
bS'\xdd\x07 \x15\x00\xae\xf4?'
p8
tp9
Rp10
ag1
(g5
S'\xc8\x0cT\x06\xfa\xde\xec?'
p11
tp12
Rp13
a.