(lp0
cnumpy.core.multiarray
scalar
p1
(cnumpy
dtype
p2
(S'f8'
p3
I0
I1
tp4
Rp5
(I3
S'<'
p6
NNNI-1
I-1
I0
tp7
bS'\x9c\xe1\x06|~\x18\xe1?'
p8
tp9
Rp10
ag1
(g5
S'\x9e\xb5\xdb.4\xd7\xe5?'
p11
tp12
Rp13
a.