(lp0
cnumpy.core.multiarray
scalar
p1
(cnumpy
dtype
p2
(S'f8'
p3
I0
I1
tp4
Rp5
(I3
S'<'
p6
NNNI-1
I-1
I0
tp7
bS'\xd6\xa8\x87\x18\xd6<\x00@'
p8
tp9
Rp10
ag1
(g5
S'\xf6\xb4\xc3\xff0\xfd\xfa?'
p11
tp12
Rp13
a.